; Function Attrs: mustprogress uwtable
define void @_ZN5boost10filesystem6detail11resize_fileERKNS0_4pathEmPNS_6system10error_codeE(ptr noundef nonnull align 8 dereferenceable(32) %0, i64 noundef %1, ptr noundef %2) local_unnamed_addr #5 personality ptr @__gxx_personality_v0 {
  %4 = icmp slt i64 %1, 0
  br i1 %4, label %5, label %6, !prof !41

5:                                                ; preds = %3
  tail call void @_ZN5boost10filesystem10emit_errorEiRKNS0_4pathEPNS_6system10error_codeEPKc(i32 noundef 27, ptr noundef nonnull align 8 dereferenceable(32) %0, ptr noundef %2, ptr noundef nonnull @.str.22)
  br label %_ZN5boost10filesystem5errorEiRKNS0_4pathEPNS_6system10error_codeEPKc.exit

6:                                                ; preds = %3
  %7 = load ptr, ptr %0, align 8, !tbaa !13
  %8 = tail call i32 @truncate64(ptr noundef %7, i64 noundef %1) #27
  %9 = icmp eq i32 %8, 0
  br i1 %9, label %.thread, label %10

10:                                               ; preds = %6
  %11 = tail call ptr @__errno_location() #30
  %12 = load i32, ptr %11, align 4, !tbaa !19
  %.not.i.not = icmp eq i32 %12, 0
  br i1 %.not.i.not, label %.thread, label %14, !prof !157

.thread:                                          ; preds = %6, %10
  %.not8.i = icmp eq ptr %2, null
  br i1 %.not8.i, label %_ZN5boost10filesystem5errorEiRKNS0_4pathEPNS_6system10error_codeEPKc.exit, label %13

13:                                               ; preds = %.thread
  tail call void @llvm.memset.p0.i64(ptr noundef nonnull align 8 dereferenceable(24) %2, i8 0, i64 24, i1 false)
  br label %_ZN5boost10filesystem5errorEiRKNS0_4pathEPNS_6system10error_codeEPKc.exit

14:                                               ; preds = %10
  tail call void @_ZN5boost10filesystem10emit_errorEiRKNS0_4pathEPNS_6system10error_codeEPKc(i32 noundef %12, ptr noundef nonnull align 8 dereferenceable(32) %0, ptr noundef %2, ptr noundef nonnull @.str.22)
  br label %_ZN5boost10filesystem5errorEiRKNS0_4pathEPNS_6system10error_codeEPKc.exit

_ZN5boost10filesystem5errorEiRKNS0_4pathEPNS_6system10error_codeEPKc.exit: ; preds = %14, %13, %.thread, %5
  ret void
}